target datalayout = "e-m:e-p270:32:32-p271:32:32-p272:64:64-i64:64-i128:128-f80:128-n8:16:32:64-S128"
target triple = "x86_64-pc-linux-gnu"

%struct.GCRef = type { i64 }
%struct.CPDecl = type { i32, i32, i32, i32, ptr, ptr, ptr, i32, i32, i32, i32, i32, i32, [100 x %struct.CType] }
%struct.CType = type { i32, i32, i16, i16, %struct.GCRef }

; Function Attrs: nounwind uwtable
define internal i32 @cp_decl_abstract(ptr noundef %0) #0 {
  %2 = alloca ptr, align 8
  %3 = alloca %struct.CPDecl, align 8
  store ptr %0, ptr %2, align 8, !tbaa !20
  call void @llvm.lifetime.start.p0(i64 2464, ptr %3) #13
  %4 = load ptr, ptr %2, align 8, !tbaa !20
  %5 = call i32 @cp_decl_spec(ptr noundef %4, ptr noundef %3, i32 noundef 0)
  %6 = getelementptr inbounds nuw %struct.CPDecl, ptr %3, i32 0, i32 3
  store i32 2, ptr %6, align 4, !tbaa !99
  %7 = load ptr, ptr %2, align 8, !tbaa !20
  call void @cp_declarator(ptr noundef %7, ptr noundef %3)
  %8 = load ptr, ptr %2, align 8, !tbaa !20
  %9 = call i32 @cp_decl_intern(ptr noundef %8, ptr noundef %3)
  call void @llvm.lifetime.end.p0(i64 2464, ptr %3) #13
  ret i32 %9
}