; Function Attrs: nounwind uwtable
define internal fastcc i32 @cp_decl_abstract(ptr noundef %0) unnamed_addr #2 {
  %2 = alloca %struct.CPDecl, align 8
  call void @llvm.lifetime.start.p0(i64 2464, ptr nonnull %2) #15
  %3 = call fastcc i32 @cp_decl_spec(ptr noundef %0, ptr noundef %2, i32 noundef 0)
  %4 = getelementptr inbounds nuw i8, ptr %2, i64 12
  store i32 2, ptr %4, align 4, !tbaa !113
  call fastcc void @cp_declarator(ptr noundef %0, ptr noundef %2)
  %5 = call fastcc i32 @cp_decl_intern(ptr noundef %0, ptr noundef %2)
  call void @llvm.lifetime.end.p0(i64 2464, ptr nonnull %2) #15
  ret i32 %5
}